; Function Attrs: mustprogress uwtable
define hidden noundef zeroext i1 @_ZN12mpbq_manager10root_upperER4mpbqj(ptr noundef nonnull readonly align 8 captures(none) dereferenceable(208) %0, ptr noundef nonnull align 8 dereferenceable(20) %1, i32 noundef %2) local_unnamed_addr #3 align 2 {
  %4 = load ptr, ptr %0, align 8, !tbaa !26
  %5 = tail call noundef zeroext i1 @_ZN11mpz_managerILb0EE4rootER3mpzj(ptr noundef nonnull align 8 dereferenceable(600) %4, ptr noundef nonnull align 8 dereferenceable(16) %1, i32 noundef %2)
  %6 = getelementptr inbounds nuw i8, ptr %1, i64 16
  %7 = load i32, ptr %6, align 8, !tbaa !13
  %8 = urem i32 %7, %2
  %9 = udiv i32 %7, %2
  %10 = icmp eq i32 %8, 0
  br i1 %10, label %11, label %17

11:                                               ; preds = %3
  %12 = udiv i32 %7, %2
  store i32 %12, ptr %6, align 8, !tbaa !13
  %13 = icmp ugt i32 %2, %7
  br i1 %13, label %_ZN12mpbq_manager9normalizeER4mpbq.exit, label %14

14:                                               ; preds = %11
  %15 = load i32, ptr %1, align 8, !tbaa !3
  %16 = icmp eq i32 %15, 0
  br i1 %16, label %_ZN12mpbq_manager9normalizeER4mpbq.exit.sink.split, label %_ZN12mpbq_manager9normalizeER4mpbq.exit.sink.split.sink.split

17:                                               ; preds = %3
  %18 = load i32, ptr %1, align 8, !tbaa !3
  %19 = icmp slt i32 %18, 0
  br i1 %19, label %20, label %23

20:                                               ; preds = %17
  %21 = add i32 %9, 1
  store i32 %21, ptr %6, align 8, !tbaa !13
  %22 = icmp eq i32 %21, 0
  br i1 %22, label %_ZN12mpbq_manager9normalizeER4mpbq.exit, label %_ZN12mpbq_manager9normalizeER4mpbq.exit.sink.split.sink.split

23:                                               ; preds = %17
  store i32 %9, ptr %6, align 8, !tbaa !13
  %24 = icmp ugt i32 %2, %7
  br i1 %24, label %_ZN12mpbq_manager9normalizeER4mpbq.exit, label %25

25:                                               ; preds = %23
  %26 = icmp eq i32 %18, 0
  br i1 %26, label %_ZN12mpbq_manager9normalizeER4mpbq.exit.sink.split, label %_ZN12mpbq_manager9normalizeER4mpbq.exit.sink.split.sink.split

_ZN12mpbq_manager9normalizeER4mpbq.exit.sink.split.sink.split: ; preds = %25, %20, %14
  %.0.ph.ph = phi i1 [ %5, %14 ], [ false, %20 ], [ false, %25 ]
  %27 = load ptr, ptr %0, align 8, !tbaa !26
  %28 = tail call noundef i32 @_ZN11mpz_managerILb0EE21power_of_two_multipleERK3mpz(ptr noundef nonnull align 8 dereferenceable(600) %27, ptr noundef nonnull align 8 dereferenceable(20) %1)
  %29 = load i32, ptr %6, align 8, !tbaa !13
  %spec.select.i21 = tail call i32 @llvm.umin.i32(i32 %28, i32 %29)
  %30 = load ptr, ptr %0, align 8, !tbaa !26
  tail call void @_ZN11mpz_managerILb0EE13machine_div2kER3mpzj(ptr noundef nonnull align 8 dereferenceable(600) %30, ptr noundef nonnull align 8 dereferenceable(20) %1, i32 noundef %spec.select.i21)
  %31 = load i32, ptr %6, align 8, !tbaa !13
  %32 = sub i32 %31, %spec.select.i21
  br label %_ZN12mpbq_manager9normalizeER4mpbq.exit.sink.split

_ZN12mpbq_manager9normalizeER4mpbq.exit.sink.split: ; preds = %_ZN12mpbq_manager9normalizeER4mpbq.exit.sink.split.sink.split, %25, %14
  %.sink.i23.sink = phi i32 [ 0, %14 ], [ 0, %25 ], [ %32, %_ZN12mpbq_manager9normalizeER4mpbq.exit.sink.split.sink.split ]
  %.0.ph = phi i1 [ %5, %14 ], [ false, %25 ], [ %.0.ph.ph, %_ZN12mpbq_manager9normalizeER4mpbq.exit.sink.split.sink.split ]
  store i32 %.sink.i23.sink, ptr %6, align 8, !tbaa !13
  br label %_ZN12mpbq_manager9normalizeER4mpbq.exit

_ZN12mpbq_manager9normalizeER4mpbq.exit:          ; preds = %_ZN12mpbq_manager9normalizeER4mpbq.exit.sink.split, %23, %20, %11
  %.0 = phi i1 [ %5, %11 ], [ false, %20 ], [ false, %23 ], [ %.0.ph, %_ZN12mpbq_manager9normalizeER4mpbq.exit.sink.split ]
  ret i1 %.0
}